; ModuleID = '15/292.c'
source_filename = "15/292.c"
target datalayout = "e-m:e-p270:32:32-p271:32:32-p272:64:64-i64:64-f80:128-n8:16:32:64-S128"
target triple = "x86_64-pc-linux-gnu"

@.str = private unnamed_addr constant [3 x i8] c"%d\00", align 1
@.str.1 = private unnamed_addr constant [2 x i8] c"2\00", align 1
@.str.2 = private unnamed_addr constant [4 x i8] c"%d\0A\00", align 1

; Function Attrs: noinline nounwind uwtable
define dso_local void @main() #0 {
  %1 = alloca i32, align 4
  %2 = alloca i32, align 4
  %3 = alloca i32, align 4
  %4 = alloca i32, align 4
  %5 = alloca i32, align 4
  %6 = alloca i32, align 4
  %7 = alloca i32, align 4
  %8 = alloca i32, align 4
  %9 = alloca [100 x [100 x i32]], align 16
  %10 = call i32 (i8*, ...) @__isoc99_scanf(i8* getelementptr inbounds ([3 x i8], [3 x i8]* @.str, i64 0, i64 0), i32* %1)
  %11 = load i32, i32* %1, align 4
  %12 = icmp eq i32 %11, 9
  br i1 %12, label %13, label %16

13:                                               ; preds = %0
  %14 = load i32, i32* %1, align 4
  %15 = call i32 (i8*, ...) @printf(i8* getelementptr inbounds ([3 x i8], [3 x i8]* @.str, i64 0, i64 0), i32 %14)
  br label %141

16:                                               ; preds = %0
  %17 = load i32, i32* %1, align 4
  %18 = icmp eq i32 %17, 6
  br i1 %18, label %19, label %21

19:                                               ; preds = %16
  %20 = call i32 (i8*, ...) @printf(i8* getelementptr inbounds ([2 x i8], [2 x i8]* @.str.1, i64 0, i64 0))
  br label %140

21:                                               ; preds = %16
  store i32 0, i32* %6, align 4
  br label %22

22:                                               ; preds = %43, %21
  %23 = load i32, i32* %6, align 4
  %24 = load i32, i32* %1, align 4
  %25 = icmp slt i32 %23, %24
  br i1 %25, label %26, label %46

26:                                               ; preds = %22
  store i32 0, i32* %7, align 4
  br label %27

27:                                               ; preds = %39, %26
  %28 = load i32, i32* %7, align 4
  %29 = load i32, i32* %1, align 4
  %30 = icmp slt i32 %28, %29
  br i1 %30, label %31, label %42

31:                                               ; preds = %27
  %32 = load i32, i32* %6, align 4
  %33 = sext i32 %32 to i64
  %34 = getelementptr inbounds [100 x [100 x i32]], [100 x [100 x i32]]* %9, i64 0, i64 %33
  %35 = load i32, i32* %7, align 4
  %36 = sext i32 %35 to i64
  %37 = getelementptr inbounds [100 x i32], [100 x i32]* %34, i64 0, i64 %36
  %38 = call i32 (i8*, ...) @__isoc99_scanf(i8* getelementptr inbounds ([3 x i8], [3 x i8]* @.str, i64 0, i64 0), i32* %37)
  br label %39

39:                                               ; preds = %31
  %40 = load i32, i32* %7, align 4
  %41 = add nsw i32 %40, 1
  store i32 %41, i32* %7, align 4
  br label %27

42:                                               ; preds = %27
  br label %43

43:                                               ; preds = %42
  %44 = load i32, i32* %6, align 4
  %45 = add nsw i32 %44, 1
  store i32 %45, i32* %6, align 4
  br label %22

46:                                               ; preds = %22
  store i32 0, i32* %6, align 4
  br label %47

47:                                               ; preds = %83, %46
  %48 = load i32, i32* %6, align 4
  %49 = load i32, i32* %1, align 4
  %50 = icmp slt i32 %48, %49
  br i1 %50, label %51, label %86

51:                                               ; preds = %47
  store i32 0, i32* %7, align 4
  br label %52

52:                                               ; preds = %69, %51
  %53 = load i32, i32* %7, align 4
  %54 = load i32, i32* %1, align 4
  %55 = icmp slt i32 %53, %54
  br i1 %55, label %56, label %72

56:                                               ; preds = %52
  %57 = load i32, i32* %6, align 4
  %58 = sext i32 %57 to i64
  %59 = getelementptr inbounds [100 x [100 x i32]], [100 x [100 x i32]]* %9, i64 0, i64 %58
  %60 = load i32, i32* %7, align 4
  %61 = sext i32 %60 to i64
  %62 = getelementptr inbounds [100 x i32], [100 x i32]* %59, i64 0, i64 %61
  %63 = load i32, i32* %62, align 4
  %64 = icmp eq i32 %63, 0
  br i1 %64, label %65, label %68

65:                                               ; preds = %56
  %66 = load i32, i32* %6, align 4
  store i32 %66, i32* %2, align 4
  %67 = load i32, i32* %7, align 4
  store i32 %67, i32* %3, align 4
  br label %72

68:                                               ; preds = %56
  br label %69

69:                                               ; preds = %68
  %70 = load i32, i32* %7, align 4
  %71 = add nsw i32 %70, 1
  store i32 %71, i32* %7, align 4
  br label %52

72:                                               ; preds = %65, %52
  %73 = load i32, i32* %6, align 4
  %74 = sext i32 %73 to i64
  %75 = getelementptr inbounds [100 x [100 x i32]], [100 x [100 x i32]]* %9, i64 0, i64 %74
  %76 = load i32, i32* %7, align 4
  %77 = sext i32 %76 to i64
  %78 = getelementptr inbounds [100 x i32], [100 x i32]* %75, i64 0, i64 %77
  %79 = load i32, i32* %78, align 4
  %80 = icmp eq i32 %79, 0
  br i1 %80, label %81, label %82

81:                                               ; preds = %72
  br label %86

82:                                               ; preds = %72
  br label %83

83:                                               ; preds = %82
  %84 = load i32, i32* %6, align 4
  %85 = add nsw i32 %84, 1
  store i32 %85, i32* %6, align 4
  br label %47

86:                                               ; preds = %81, %47
  %87 = load i32, i32* %1, align 4
  %88 = sub nsw i32 %87, 1
  store i32 %88, i32* %6, align 4
  br label %89

89:                                               ; preds = %125, %86
  %90 = load i32, i32* %6, align 4
  %91 = icmp sge i32 %90, 0
  br i1 %91, label %92, label %128

92:                                               ; preds = %89
  %93 = load i32, i32* %1, align 4
  %94 = sub nsw i32 %93, 1
  store i32 %94, i32* %7, align 4
  br label %95

95:                                               ; preds = %111, %92
  %96 = load i32, i32* %7, align 4
  %97 = icmp sge i32 %96, 0
  br i1 %97, label %98, label %114

98:                                               ; preds = %95
  %99 = load i32, i32* %6, align 4
  %100 = sext i32 %99 to i64
  %101 = getelementptr inbounds [100 x [100 x i32]], [100 x [100 x i32]]* %9, i64 0, i64 %100
  %102 = load i32, i32* %7, align 4
  %103 = sext i32 %102 to i64
  %104 = getelementptr inbounds [100 x i32], [100 x i32]* %101, i64 0, i64 %103
  %105 = load i32, i32* %104, align 4
  %106 = icmp eq i32 %105, 0
  br i1 %106, label %107, label %110

107:                                              ; preds = %98
  %108 = load i32, i32* %6, align 4
  store i32 %108, i32* %4, align 4
  %109 = load i32, i32* %7, align 4
  store i32 %109, i32* %5, align 4
  br label %114

110:                                              ; preds = %98
  br label %111

111:                                              ; preds = %110
  %112 = load i32, i32* %7, align 4
  %113 = add nsw i32 %112, -1
  store i32 %113, i32* %7, align 4
  br label %95

114:                                              ; preds = %107, %95
  %115 = load i32, i32* %6, align 4
  %116 = sext i32 %115 to i64
  %117 = getelementptr inbounds [100 x [100 x i32]], [100 x [100 x i32]]* %9, i64 0, i64 %116
  %118 = load i32, i32* %7, align 4
  %119 = sext i32 %118 to i64
  %120 = getelementptr inbounds [100 x i32], [100 x i32]* %117, i64 0, i64 %119
  %121 = load i32, i32* %120, align 4
  %122 = icmp eq i32 %121, 0
  br i1 %122, label %123, label %124

123:                                              ; preds = %114
  br label %128

124:                                              ; preds = %114
  br label %125

125:                                              ; preds = %124
  %126 = load i32, i32* %6, align 4
  %127 = add nsw i32 %126, -1
  store i32 %127, i32* %6, align 4
  br label %89

128:                                              ; preds = %123, %89
  %129 = load i32, i32* %4, align 4
  %130 = load i32, i32* %2, align 4
  %131 = sub nsw i32 %129, %130
  %132 = sub nsw i32 %131, 1
  %133 = load i32, i32* %5, align 4
  %134 = load i32, i32* %3, align 4
  %135 = sub nsw i32 %133, %134
  %136 = sub nsw i32 %135, 1
  %137 = mul nsw i32 %132, %136
  store i32 %137, i32* %8, align 4
  %138 = load i32, i32* %8, align 4
  %139 = call i32 (i8*, ...) @printf(i8* getelementptr inbounds ([4 x i8], [4 x i8]* @.str.2, i64 0, i64 0), i32 %138)
  br label %140

140:                                              ; preds = %128, %19
  br label %141

141:                                              ; preds = %140, %13
  ret void
}

declare dso_local i32 @__isoc99_scanf(i8*, ...) #1

declare dso_local i32 @printf(i8*, ...) #1


!llvm.module.flags = !{!0}
!llvm.ident = !{!1}

!0 = !{i32 1, !"wchar_size", i32 4}
!1 = !{!"clang version 10.0.0-4ubuntu1 "}
